target datalayout = "e-m:e-p270:32:32-p271:32:32-p272:64:64-i64:64-i128:128-f80:128-n8:16:32:64-S128"
target triple = "x86_64-pc-linux-gnu"

%struct._zval_struct = type { %union._zend_value, %union.anon.21, %union.anon.24 }
%union._zend_value = type { i64 }
%union.anon.21 = type { i32 }
%union.anon.24 = type { i32 }
%struct._zend_execute_data = type { ptr, ptr, ptr, ptr, %struct._zval_struct, ptr, ptr, ptr, ptr }

; Function Attrs: nounwind uwtable
define internal ptr @zend_jit_extend_stack_helper(i32 noundef %0, ptr noundef %1) #0 {
  %3 = alloca i32, align 4
  %4 = alloca ptr, align 8
  %5 = alloca ptr, align 8
  store i32 %0, ptr %3, align 4
  store ptr %1, ptr %4, align 8
  %6 = load i32, ptr %3, align 4
  %7 = zext i32 %6 to i64
  %8 = call ptr @zend_vm_stack_extend(i64 noundef %7)
  store ptr %8, ptr %5, align 8
  %9 = load ptr, ptr %4, align 8
  %10 = load ptr, ptr %5, align 8
  %11 = getelementptr inbounds %struct._zend_execute_data, ptr %10, i32 0, i32 3
  store ptr %9, ptr %11, align 8
  %12 = load ptr, ptr %5, align 8
  %13 = getelementptr inbounds %struct._zend_execute_data, ptr %12, i32 0, i32 4
  %14 = getelementptr inbounds %struct._zval_struct, ptr %13, i32 0, i32 1
  store i32 262144, ptr %14, align 8
  %15 = load ptr, ptr %5, align 8
  ret ptr %15
}