; Function Attrs: nounwind uwtable
define internal ptr @zend_jit_extend_stack_helper(i32 noundef %0, ptr noundef %1) #0 {
  %3 = zext i32 %0 to i64
  %4 = tail call ptr @zend_vm_stack_extend(i64 noundef %3) #32
  %5 = getelementptr inbounds i8, ptr %4, i64 24
  store ptr %1, ptr %5, align 8
  %6 = getelementptr inbounds i8, ptr %4, i64 40
  store i32 262144, ptr %6, align 8
  ret ptr %4
}